; Function Attrs: nounwind uwtable
define ptr @l_Array_mapMUnsafe_map___at_Lean_Widget_CodeWithInfos_mergePosMap___spec__3___rarg___lambda__1(i64 noundef %0, ptr noundef %1, ptr noundef %2, ptr noundef %3, i64 noundef %4, ptr noundef %5) local_unnamed_addr #1 {
  %.val.i.i = load i32, ptr %1, align 4, !tbaa !4
  %7 = icmp eq i32 %.val.i.i, 1
  br i1 %7, label %lean_ensure_exclusive_array.exit.i, label %8

8:                                                ; preds = %6
  %9 = tail call ptr @lean_copy_expand_array(ptr noundef nonnull %1, i1 noundef zeroext false) #8
  br label %lean_ensure_exclusive_array.exit.i

lean_ensure_exclusive_array.exit.i:               ; preds = %8, %6
  %.0.i.i = phi ptr [ %9, %8 ], [ %1, %6 ]
  %10 = getelementptr inbounds nuw i8, ptr %.0.i.i, i64 24
  %11 = getelementptr inbounds nuw ptr, ptr %10, i64 %0
  %12 = load ptr, ptr %11, align 8, !tbaa !10
  %13 = ptrtoint ptr %12 to i64
  %14 = and i64 %13, 1
  %.not.i = icmp eq i64 %14, 0
  br i1 %.not.i, label %15, label %lean_array_uset.exit

15:                                               ; preds = %lean_ensure_exclusive_array.exit.i
  %16 = load i32, ptr %12, align 4, !tbaa !4
  %17 = icmp sgt i32 %16, 1
  br i1 %17, label %18, label %20, !prof !9

18:                                               ; preds = %15
  %19 = add nsw i32 %16, -1
  store i32 %19, ptr %12, align 4, !tbaa !4
  br label %lean_array_uset.exit

20:                                               ; preds = %15
  %.not.i.i = icmp eq i32 %16, 0
  br i1 %.not.i.i, label %lean_array_uset.exit, label %21

21:                                               ; preds = %20
  tail call void @lean_dec_ref_cold(ptr noundef nonnull %12) #8
  br label %lean_array_uset.exit

lean_array_uset.exit:                             ; preds = %lean_ensure_exclusive_array.exit.i, %18, %20, %21
  %22 = add i64 %0, 1
  store ptr %5, ptr %11, align 8, !tbaa !10
  %23 = tail call ptr @l_Array_mapMUnsafe_map___at_Lean_Widget_CodeWithInfos_mergePosMap___spec__3___rarg(ptr noundef %2, ptr noundef %3, i64 noundef %4, i64 noundef %22, ptr noundef nonnull %.0.i.i)
  ret ptr %23
}